target datalayout = "e-m:e-p270:32:32-p271:32:32-p272:64:64-i64:64-i128:128-f80:128-n8:16:32:64-S128"
target triple = "x86_64-pc-linux-gnu"

%struct.asn1_string_st = type { i32, i32, ptr, i64 }

@.str.24 = private unnamed_addr constant [1 x i8] zeroinitializer, align 1
@.str.42 = private unnamed_addr constant [12 x i8] c"%d.%d.%d.%d\00", align 1
@.str.43 = private unnamed_addr constant [5 x i8] c"%x%s\00", align 1
@.str.44 = private unnamed_addr constant [2 x i8] c":\00", align 1
@.str.45 = private unnamed_addr constant [7 x i8] c"%s%02x\00", align 1
@.str.46 = private unnamed_addr constant [5 x i8] c"[%d]\00", align 1

; Function Attrs: nounwind uwtable
define internal i32 @addr_expand(ptr noundef %0, ptr noundef %1, i32 noundef %2, i8 noundef zeroext %3) #0 {
  %5 = alloca i32, align 4
  %6 = alloca ptr, align 8
  %7 = alloca ptr, align 8
  %8 = alloca i32, align 4
  %9 = alloca i8, align 1
  %10 = alloca i8, align 1
  store ptr %0, ptr %6, align 8, !tbaa !45
  store ptr %1, ptr %7, align 8, !tbaa !62
  store i32 %2, ptr %8, align 4, !tbaa !37
  store i8 %3, ptr %9, align 1, !tbaa !34
  %11 = load ptr, ptr %7, align 8, !tbaa !62
  %12 = getelementptr inbounds nuw %struct.asn1_string_st, ptr %11, i32 0, i32 0
  %13 = load i32, ptr %12, align 8, !tbaa !33
  %14 = icmp slt i32 %13, 0
  br i1 %14, label %21, label %15

15:                                               ; preds = %4
  %16 = load ptr, ptr %7, align 8, !tbaa !62
  %17 = getelementptr inbounds nuw %struct.asn1_string_st, ptr %16, i32 0, i32 0
  %18 = load i32, ptr %17, align 8, !tbaa !33
  %19 = load i32, ptr %8, align 4, !tbaa !37
  %20 = icmp sgt i32 %18, %19
  br i1 %20, label %21, label %22

21:                                               ; preds = %15, %4
  store i32 0, ptr %5, align 4
  br label %100

22:                                               ; preds = %15
  %23 = load ptr, ptr %7, align 8, !tbaa !62
  %24 = getelementptr inbounds nuw %struct.asn1_string_st, ptr %23, i32 0, i32 0
  %25 = load i32, ptr %24, align 8, !tbaa !33
  %26 = icmp sgt i32 %25, 0
  br i1 %26, label %27, label %84

27:                                               ; preds = %22
  %28 = load ptr, ptr %6, align 8, !tbaa !45
  %29 = load ptr, ptr %7, align 8, !tbaa !62
  %30 = getelementptr inbounds nuw %struct.asn1_string_st, ptr %29, i32 0, i32 2
  %31 = load ptr, ptr %30, align 8, !tbaa !29
  %32 = load ptr, ptr %7, align 8, !tbaa !62
  %33 = getelementptr inbounds nuw %struct.asn1_string_st, ptr %32, i32 0, i32 0
  %34 = load i32, ptr %33, align 8, !tbaa !33
  %35 = sext i32 %34 to i64
  call void @llvm.memcpy.p0.p0.i64(ptr align 1 %28, ptr align 1 %31, i64 %35, i1 false)
  %36 = load ptr, ptr %7, align 8, !tbaa !62
  %37 = getelementptr inbounds nuw %struct.asn1_string_st, ptr %36, i32 0, i32 3
  %38 = load i64, ptr %37, align 8, !tbaa !55
  %39 = and i64 %38, 7
  %40 = icmp ne i64 %39, 0
  br i1 %40, label %41, label %83

41:                                               ; preds = %27
  call void @llvm.lifetime.start.p0(i64 1, ptr %10) #9
  %42 = load ptr, ptr %7, align 8, !tbaa !62
  %43 = getelementptr inbounds nuw %struct.asn1_string_st, ptr %42, i32 0, i32 3
  %44 = load i64, ptr %43, align 8, !tbaa !55
  %45 = and i64 %44, 7
  %46 = sub nsw i64 8, %45
  %47 = trunc i64 %46 to i32
  %48 = ashr i32 255, %47
  %49 = trunc i32 %48 to i8
  store i8 %49, ptr %10, align 1, !tbaa !34
  %50 = load i8, ptr %9, align 1, !tbaa !34
  %51 = zext i8 %50 to i32
  %52 = icmp eq i32 %51, 0
  br i1 %52, label %53, label %68

53:                                               ; preds = %41
  %54 = load i8, ptr %10, align 1, !tbaa !34
  %55 = zext i8 %54 to i32
  %56 = xor i32 %55, -1
  %57 = load ptr, ptr %6, align 8, !tbaa !45
  %58 = load ptr, ptr %7, align 8, !tbaa !62
  %59 = getelementptr inbounds nuw %struct.asn1_string_st, ptr %58, i32 0, i32 0
  %60 = load i32, ptr %59, align 8, !tbaa !33
  %61 = sub nsw i32 %60, 1
  %62 = sext i32 %61 to i64
  %63 = getelementptr inbounds i8, ptr %57, i64 %62
  %64 = load i8, ptr %63, align 1, !tbaa !34
  %65 = zext i8 %64 to i32
  %66 = and i32 %65, %56
  %67 = trunc i32 %66 to i8
  store i8 %67, ptr %63, align 1, !tbaa !34
  br label %82

68:                                               ; preds = %41
  %69 = load i8, ptr %10, align 1, !tbaa !34
  %70 = zext i8 %69 to i32
  %71 = load ptr, ptr %6, align 8, !tbaa !45
  %72 = load ptr, ptr %7, align 8, !tbaa !62
  %73 = getelementptr inbounds nuw %struct.asn1_string_st, ptr %72, i32 0, i32 0
  %74 = load i32, ptr %73, align 8, !tbaa !33
  %75 = sub nsw i32 %74, 1
  %76 = sext i32 %75 to i64
  %77 = getelementptr inbounds i8, ptr %71, i64 %76
  %78 = load i8, ptr %77, align 1, !tbaa !34
  %79 = zext i8 %78 to i32
  %80 = or i32 %79, %70
  %81 = trunc i32 %80 to i8
  store i8 %81, ptr %77, align 1, !tbaa !34
  br label %82

82:                                               ; preds = %68, %53
  call void @llvm.lifetime.end.p0(i64 1, ptr %10) #9
  br label %83

83:                                               ; preds = %82, %27
  br label %84

84:                                               ; preds = %83, %22
  %85 = load ptr, ptr %6, align 8, !tbaa !45
  %86 = load ptr, ptr %7, align 8, !tbaa !62
  %87 = getelementptr inbounds nuw %struct.asn1_string_st, ptr %86, i32 0, i32 0
  %88 = load i32, ptr %87, align 8, !tbaa !33
  %89 = sext i32 %88 to i64
  %90 = getelementptr inbounds i8, ptr %85, i64 %89
  %91 = load i8, ptr %9, align 1, !tbaa !34
  %92 = zext i8 %91 to i32
  %93 = trunc i32 %92 to i8
  %94 = load i32, ptr %8, align 4, !tbaa !37
  %95 = load ptr, ptr %7, align 8, !tbaa !62
  %96 = getelementptr inbounds nuw %struct.asn1_string_st, ptr %95, i32 0, i32 0
  %97 = load i32, ptr %96, align 8, !tbaa !33
  %98 = sub nsw i32 %94, %97
  %99 = sext i32 %98 to i64
  call void @llvm.memset.p0.i64(ptr align 1 %90, i8 %93, i64 %99, i1 false)
  store i32 1, ptr %5, align 4
  br label %100

100:                                              ; preds = %84, %21
  %101 = load i32, ptr %5, align 4
  ret i32 %101
}

; Function Attrs: nounwind uwtable
define internal i32 @i2r_address(ptr noundef %0, i32 noundef %1, i8 noundef zeroext %2, ptr noundef %3) #0 {
  %5 = alloca i32, align 4
  %6 = alloca ptr, align 8
  %7 = alloca i32, align 4
  %8 = alloca i8, align 1
  %9 = alloca ptr, align 8
  %10 = alloca [16 x i8], align 16
  %11 = alloca i32, align 4
  %12 = alloca i32, align 4
  %13 = alloca i32, align 4
  store ptr %0, ptr %6, align 8, !tbaa !79
  store i32 %1, ptr %7, align 4, !tbaa !37
  store i8 %2, ptr %8, align 1, !tbaa !34
  store ptr %3, ptr %9, align 8, !tbaa !62
  call void @llvm.lifetime.start.p0(i64 16, ptr %10) #9
  call void @llvm.lifetime.start.p0(i64 4, ptr %11) #9
  call void @llvm.lifetime.start.p0(i64 4, ptr %12) #9
  %14 = load ptr, ptr %9, align 8, !tbaa !62
  %15 = getelementptr inbounds nuw %struct.asn1_string_st, ptr %14, i32 0, i32 0
  %16 = load i32, ptr %15, align 8, !tbaa !33
  %17 = icmp slt i32 %16, 0
  br i1 %17, label %18, label %19

18:                                               ; preds = %4
  store i32 0, ptr %5, align 4
  store i32 1, ptr %13, align 4
  br label %149

19:                                               ; preds = %4
  %20 = load i32, ptr %7, align 4, !tbaa !37
  switch i32 %20, label %116 [
    i32 1, label %21
    i32 2, label %43
  ]

21:                                               ; preds = %19
  %22 = getelementptr inbounds [16 x i8], ptr %10, i64 0, i64 0
  %23 = load ptr, ptr %9, align 8, !tbaa !62
  %24 = load i8, ptr %8, align 1, !tbaa !34
  %25 = call i32 @addr_expand(ptr noundef %22, ptr noundef %23, i32 noundef 4, i8 noundef zeroext %24)
  %26 = icmp ne i32 %25, 0
  br i1 %26, label %28, label %27

27:                                               ; preds = %21
  store i32 0, ptr %5, align 4
  store i32 1, ptr %13, align 4
  br label %149

28:                                               ; preds = %21
  %29 = load ptr, ptr %6, align 8, !tbaa !79
  %30 = getelementptr inbounds [16 x i8], ptr %10, i64 0, i64 0
  %31 = load i8, ptr %30, align 16, !tbaa !34
  %32 = zext i8 %31 to i32
  %33 = getelementptr inbounds [16 x i8], ptr %10, i64 0, i64 1
  %34 = load i8, ptr %33, align 1, !tbaa !34
  %35 = zext i8 %34 to i32
  %36 = getelementptr inbounds [16 x i8], ptr %10, i64 0, i64 2
  %37 = load i8, ptr %36, align 2, !tbaa !34
  %38 = zext i8 %37 to i32
  %39 = getelementptr inbounds [16 x i8], ptr %10, i64 0, i64 3
  %40 = load i8, ptr %39, align 1, !tbaa !34
  %41 = zext i8 %40 to i32
  %42 = call i32 (ptr, ptr, ...) @BIO_printf(ptr noundef %29, ptr noundef @.str.42, i32 noundef %32, i32 noundef %35, i32 noundef %38, i32 noundef %41)
  br label %148

43:                                               ; preds = %19
  %44 = getelementptr inbounds [16 x i8], ptr %10, i64 0, i64 0
  %45 = load ptr, ptr %9, align 8, !tbaa !62
  %46 = load i8, ptr %8, align 1, !tbaa !34
  %47 = call i32 @addr_expand(ptr noundef %44, ptr noundef %45, i32 noundef 16, i8 noundef zeroext %46)
  %48 = icmp ne i32 %47, 0
  br i1 %48, label %50, label %49

49:                                               ; preds = %43
  store i32 0, ptr %5, align 4
  store i32 1, ptr %13, align 4
  br label %149

50:                                               ; preds = %43
  store i32 16, ptr %12, align 4, !tbaa !37
  br label %51

51:                                               ; preds = %73, %50
  %52 = load i32, ptr %12, align 4, !tbaa !37
  %53 = icmp sgt i32 %52, 1
  br i1 %53, label %54, label %70

54:                                               ; preds = %51
  %55 = load i32, ptr %12, align 4, !tbaa !37
  %56 = sub nsw i32 %55, 1
  %57 = sext i32 %56 to i64
  %58 = getelementptr inbounds [16 x i8], ptr %10, i64 0, i64 %57
  %59 = load i8, ptr %58, align 1, !tbaa !34
  %60 = zext i8 %59 to i32
  %61 = icmp eq i32 %60, 0
  br i1 %61, label %62, label %70

62:                                               ; preds = %54
  %63 = load i32, ptr %12, align 4, !tbaa !37
  %64 = sub nsw i32 %63, 2
  %65 = sext i32 %64 to i64
  %66 = getelementptr inbounds [16 x i8], ptr %10, i64 0, i64 %65
  %67 = load i8, ptr %66, align 1, !tbaa !34
  %68 = zext i8 %67 to i32
  %69 = icmp eq i32 %68, 0
  br label %70

70:                                               ; preds = %62, %54, %51
  %71 = phi i1 [ false, %54 ], [ false, %51 ], [ %69, %62 ]
  br i1 %71, label %72, label %76

72:                                               ; preds = %70
  br label %73

73:                                               ; preds = %72
  %74 = load i32, ptr %12, align 4, !tbaa !37
  %75 = sub nsw i32 %74, 2
  store i32 %75, ptr %12, align 4, !tbaa !37
  br label %51, !llvm.loop !132

76:                                               ; preds = %70
  store i32 0, ptr %11, align 4, !tbaa !37
  br label %77

77:                                               ; preds = %100, %76
  %78 = load i32, ptr %11, align 4, !tbaa !37
  %79 = load i32, ptr %12, align 4, !tbaa !37
  %80 = icmp slt i32 %78, %79
  br i1 %80, label %81, label %103

81:                                               ; preds = %77
  %82 = load ptr, ptr %6, align 8, !tbaa !79
  %83 = load i32, ptr %11, align 4, !tbaa !37
  %84 = sext i32 %83 to i64
  %85 = getelementptr inbounds [16 x i8], ptr %10, i64 0, i64 %84
  %86 = load i8, ptr %85, align 1, !tbaa !34
  %87 = zext i8 %86 to i32
  %88 = shl i32 %87, 8
  %89 = load i32, ptr %11, align 4, !tbaa !37
  %90 = add nsw i32 %89, 1
  %91 = sext i32 %90 to i64
  %92 = getelementptr inbounds [16 x i8], ptr %10, i64 0, i64 %91
  %93 = load i8, ptr %92, align 1, !tbaa !34
  %94 = zext i8 %93 to i32
  %95 = or i32 %88, %94
  %96 = load i32, ptr %11, align 4, !tbaa !37
  %97 = icmp slt i32 %96, 14
  %98 = select i1 %97, ptr @.str.44, ptr @.str.24
  %99 = call i32 (ptr, ptr, ...) @BIO_printf(ptr noundef %82, ptr noundef @.str.43, i32 noundef %95, ptr noundef %98)
  br label %100

100:                                              ; preds = %81
  %101 = load i32, ptr %11, align 4, !tbaa !37
  %102 = add nsw i32 %101, 2
  store i32 %102, ptr %11, align 4, !tbaa !37
  br label %77, !llvm.loop !133

103:                                              ; preds = %77
  %104 = load i32, ptr %11, align 4, !tbaa !37
  %105 = icmp slt i32 %104, 16
  br i1 %105, label %106, label %109

106:                                              ; preds = %103
  %107 = load ptr, ptr %6, align 8, !tbaa !79
  %108 = call i32 @BIO_puts(ptr noundef %107, ptr noundef @.str.44)
  br label %109

109:                                              ; preds = %106, %103
  %110 = load i32, ptr %11, align 4, !tbaa !37
  %111 = icmp eq i32 %110, 0
  br i1 %111, label %112, label %115

112:                                              ; preds = %109
  %113 = load ptr, ptr %6, align 8, !tbaa !79
  %114 = call i32 @BIO_puts(ptr noundef %113, ptr noundef @.str.44)
  br label %115

115:                                              ; preds = %112, %109
  br label %148

116:                                              ; preds = %19
  store i32 0, ptr %11, align 4, !tbaa !37
  br label %117

117:                                              ; preds = %137, %116
  %118 = load i32, ptr %11, align 4, !tbaa !37
  %119 = load ptr, ptr %9, align 8, !tbaa !62
  %120 = getelementptr inbounds nuw %struct.asn1_string_st, ptr %119, i32 0, i32 0
  %121 = load i32, ptr %120, align 8, !tbaa !33
  %122 = icmp slt i32 %118, %121
  br i1 %122, label %123, label %140

123:                                              ; preds = %117
  %124 = load ptr, ptr %6, align 8, !tbaa !79
  %125 = load i32, ptr %11, align 4, !tbaa !37
  %126 = icmp sgt i32 %125, 0
  %127 = select i1 %126, ptr @.str.44, ptr @.str.24
  %128 = load ptr, ptr %9, align 8, !tbaa !62
  %129 = getelementptr inbounds nuw %struct.asn1_string_st, ptr %128, i32 0, i32 2
  %130 = load ptr, ptr %129, align 8, !tbaa !29
  %131 = load i32, ptr %11, align 4, !tbaa !37
  %132 = sext i32 %131 to i64
  %133 = getelementptr inbounds i8, ptr %130, i64 %132
  %134 = load i8, ptr %133, align 1, !tbaa !34
  %135 = zext i8 %134 to i32
  %136 = call i32 (ptr, ptr, ...) @BIO_printf(ptr noundef %124, ptr noundef @.str.45, ptr noundef %127, i32 noundef %135)
  br label %137

137:                                              ; preds = %123
  %138 = load i32, ptr %11, align 4, !tbaa !37
  %139 = add nsw i32 %138, 1
  store i32 %139, ptr %11, align 4, !tbaa !37
  br label %117, !llvm.loop !134

140:                                              ; preds = %117
  %141 = load ptr, ptr %6, align 8, !tbaa !79
  %142 = load ptr, ptr %9, align 8, !tbaa !62
  %143 = getelementptr inbounds nuw %struct.asn1_string_st, ptr %142, i32 0, i32 3
  %144 = load i64, ptr %143, align 8, !tbaa !55
  %145 = and i64 %144, 7
  %146 = trunc i64 %145 to i32
  %147 = call i32 (ptr, ptr, ...) @BIO_printf(ptr noundef %141, ptr noundef @.str.46, i32 noundef %146)
  br label %148

148:                                              ; preds = %140, %115, %28
  store i32 1, ptr %5, align 4
  store i32 1, ptr %13, align 4
  br label %149

149:                                              ; preds = %148, %49, %27, %18
  call void @llvm.lifetime.end.p0(i64 4, ptr %12) #9
  call void @llvm.lifetime.end.p0(i64 4, ptr %11) #9
  call void @llvm.lifetime.end.p0(i64 16, ptr %10) #9
  %150 = load i32, ptr %5, align 4
  ret i32 %150
}