; Function Attrs: nounwind uwtable
define internal fastcc range(i32 0, 2) i32 @i2r_address(ptr noundef %0, i32 noundef range(i32 0, 65536) %1, i8 noundef zeroext range(i8 -1, 1) %2, ptr noundef readonly captures(none) %3) unnamed_addr #1 {
  %5 = alloca [16 x i8], align 16
  call void @llvm.lifetime.start.p0(i64 16, ptr nonnull %5) #15
  %6 = load i32, ptr %3, align 8, !tbaa !15
  %7 = icmp slt i32 %6, 0
  br i1 %7, label %addr_expand.exit.thread, label %8

8:                                                ; preds = %4
  %trunc = trunc nuw i32 %1 to i16
  switch i16 %trunc, label %.preheader [
    i16 1, label %10
    i16 2, label %52
  ]

.preheader:                                       ; preds = %8
  %.not58 = icmp eq i32 %6, 0
  br i1 %.not58, label %._crit_edge47, label %.lr.ph46

.lr.ph46:                                         ; preds = %.preheader
  %9 = getelementptr inbounds nuw i8, ptr %3, i64 8
  br label %112

10:                                               ; preds = %8
  %or.cond.i = icmp samesign ugt i32 %6, 4
  br i1 %or.cond.i, label %addr_expand.exit.thread, label %11

11:                                               ; preds = %10
  %.not.i = icmp eq i32 %6, 0
  br i1 %.not.i, label %._crit_edge55, label %12

12:                                               ; preds = %11
  %13 = getelementptr inbounds nuw i8, ptr %3, i64 8
  %14 = load ptr, ptr %13, align 8, !tbaa !10
  %15 = zext nneg i32 %6 to i64
  call void @llvm.memcpy.p0.p0.i64(ptr nonnull align 16 %5, ptr align 1 %14, i64 %15, i1 false)
  %16 = getelementptr inbounds nuw i8, ptr %3, i64 16
  %17 = load i64, ptr %16, align 8, !tbaa !34
  %18 = and i64 %17, 7
  %.not24.i = icmp eq i64 %18, 0
  br i1 %.not24.i, label %._crit_edge55, label %19

19:                                               ; preds = %12
  %20 = trunc nuw nsw i64 %18 to i16
  %21 = sub nuw nsw i16 8, %20
  %22 = icmp eq i8 %2, 0
  br i1 %22, label %23, label %30

23:                                               ; preds = %19
  %24 = ashr i16 -256, %21
  %25 = trunc nsw i16 %24 to i8
  %26 = getelementptr i8, ptr %5, i64 %15
  %27 = getelementptr i8, ptr %26, i64 -1
  %28 = load i8, ptr %27, align 1, !tbaa !16
  %29 = and i8 %28, %25
  store i8 %29, ptr %27, align 1, !tbaa !16
  br label %._crit_edge55

30:                                               ; preds = %19
  %31 = lshr i16 255, %21
  %32 = getelementptr i8, ptr %5, i64 %15
  %33 = getelementptr i8, ptr %32, i64 -1
  %34 = load i8, ptr %33, align 1, !tbaa !16
  %35 = trunc nuw nsw i16 %31 to i8
  %36 = or i8 %34, %35
  store i8 %36, ptr %33, align 1, !tbaa !16
  br label %._crit_edge55

._crit_edge55:                                    ; preds = %11, %30, %23, %12
  %.pre-phi = phi i64 [ %15, %30 ], [ %15, %23 ], [ %15, %12 ], [ 0, %11 ]
  %37 = getelementptr inbounds nuw i8, ptr %5, i64 %.pre-phi
  %38 = sub nuw nsw i32 4, %6
  %39 = zext nneg i32 %38 to i64
  call void @llvm.memset.p0.i64(ptr nonnull align 1 %37, i8 range(i8 -1, 1) %2, i64 %39, i1 false)
  %40 = load i8, ptr %5, align 16, !tbaa !16
  %41 = zext i8 %40 to i32
  %42 = getelementptr inbounds nuw i8, ptr %5, i64 1
  %43 = load i8, ptr %42, align 1, !tbaa !16
  %44 = zext i8 %43 to i32
  %45 = getelementptr inbounds nuw i8, ptr %5, i64 2
  %46 = load i8, ptr %45, align 2, !tbaa !16
  %47 = zext i8 %46 to i32
  %48 = getelementptr inbounds nuw i8, ptr %5, i64 3
  %49 = load i8, ptr %48, align 1, !tbaa !16
  %50 = zext i8 %49 to i32
  %51 = tail call i32 (ptr, ptr, ...) @BIO_printf(ptr noundef %0, ptr noundef nonnull @.str.42, i32 noundef %41, i32 noundef %44, i32 noundef %47, i32 noundef %50) #15
  br label %addr_expand.exit.thread

52:                                               ; preds = %8
  %or.cond.i35 = icmp samesign ugt i32 %6, 16
  br i1 %or.cond.i35, label %addr_expand.exit.thread, label %53

53:                                               ; preds = %52
  %.not.i36 = icmp eq i32 %6, 0
  br i1 %.not.i36, label %addr_expand.exit39, label %54

54:                                               ; preds = %53
  %55 = getelementptr inbounds nuw i8, ptr %3, i64 8
  %56 = load ptr, ptr %55, align 8, !tbaa !10
  %57 = zext nneg i32 %6 to i64
  call void @llvm.memcpy.p0.p0.i64(ptr nonnull align 16 %5, ptr align 1 %56, i64 %57, i1 false)
  %58 = getelementptr inbounds nuw i8, ptr %3, i64 16
  %59 = load i64, ptr %58, align 8, !tbaa !34
  %60 = and i64 %59, 7
  %.not24.i37 = icmp eq i64 %60, 0
  br i1 %.not24.i37, label %addr_expand.exit39, label %61

61:                                               ; preds = %54
  %62 = trunc nuw nsw i64 %60 to i16
  %63 = sub nuw nsw i16 8, %62
  %64 = icmp eq i8 %2, 0
  br i1 %64, label %65, label %72

65:                                               ; preds = %61
  %66 = ashr i16 -256, %63
  %67 = trunc nsw i16 %66 to i8
  %68 = getelementptr i8, ptr %5, i64 %57
  %69 = getelementptr i8, ptr %68, i64 -1
  %70 = load i8, ptr %69, align 1, !tbaa !16
  %71 = and i8 %70, %67
  store i8 %71, ptr %69, align 1, !tbaa !16
  br label %addr_expand.exit39

72:                                               ; preds = %61
  %73 = lshr i16 255, %63
  %74 = getelementptr i8, ptr %5, i64 %57
  %75 = getelementptr i8, ptr %74, i64 -1
  %76 = load i8, ptr %75, align 1, !tbaa !16
  %77 = trunc nuw nsw i16 %73 to i8
  %78 = or i8 %76, %77
  store i8 %78, ptr %75, align 1, !tbaa !16
  br label %addr_expand.exit39

addr_expand.exit39:                               ; preds = %53, %54, %65, %72
  %.pre-phi57 = phi i64 [ %57, %54 ], [ %57, %65 ], [ %57, %72 ], [ 0, %53 ]
  %79 = getelementptr inbounds nuw i8, ptr %5, i64 %.pre-phi57
  %80 = sub nuw nsw i32 16, %6
  %81 = zext nneg i32 %80 to i64
  call void @llvm.memset.p0.i64(ptr nonnull align 1 %79, i8 range(i8 -1, 1) %2, i64 %81, i1 false)
  br label %82

82:                                               ; preds = %addr_expand.exit39, %88
  %indvars.iv = phi i64 [ 16, %addr_expand.exit39 ], [ %indvars.iv.next, %88 ]
  %.not = icmp eq i64 %indvars.iv, 0
  br i1 %.not, label %.critedge.thread, label %83

83:                                               ; preds = %82
  %84 = add nsw i64 %indvars.iv, -1
  %85 = getelementptr inbounds nuw [16 x i8], ptr %5, i64 0, i64 %84
  %86 = load i8, ptr %85, align 1, !tbaa !16
  %87 = icmp eq i8 %86, 0
  br i1 %87, label %88, label %.critedge

88:                                               ; preds = %83
  %indvars.iv.next = add nsw i64 %indvars.iv, -2
  %89 = getelementptr inbounds nuw [16 x i8], ptr %5, i64 0, i64 %indvars.iv.next
  %90 = load i8, ptr %89, align 2, !tbaa !16
  %91 = icmp eq i8 %90, 0
  br i1 %91, label %82, label %.critedge, !llvm.loop !102

.critedge:                                        ; preds = %83, %88
  %92 = icmp sgt i64 %indvars.iv, 0
  br i1 %92, label %.lr.ph.preheader, label %.critedge.thread

.lr.ph.preheader:                                 ; preds = %.critedge
  %93 = and i64 %indvars.iv, 4294967294
  br label %.lr.ph

.lr.ph:                                           ; preds = %.lr.ph.preheader, %.lr.ph
  %indvars.iv49 = phi i64 [ 0, %.lr.ph.preheader ], [ %indvars.iv.next50, %.lr.ph ]
  %94 = getelementptr inbounds nuw [16 x i8], ptr %5, i64 0, i64 %indvars.iv49
  %95 = load i8, ptr %94, align 2, !tbaa !16
  %96 = zext i8 %95 to i32
  %97 = shl nuw nsw i32 %96, 8
  %98 = or disjoint i64 %indvars.iv49, 1
  %99 = getelementptr inbounds nuw [16 x i8], ptr %5, i64 0, i64 %98
  %100 = load i8, ptr %99, align 1, !tbaa !16
  %101 = zext i8 %100 to i32
  %102 = or disjoint i32 %97, %101
  %103 = icmp samesign ult i64 %indvars.iv49, 14
  %104 = select i1 %103, ptr @.str.44, ptr @.str.24
  %105 = tail call i32 (ptr, ptr, ...) @BIO_printf(ptr noundef %0, ptr noundef nonnull @.str.43, i32 noundef %102, ptr noundef nonnull %104) #15
  %indvars.iv.next50 = add nuw nsw i64 %indvars.iv49, 2
  %106 = icmp samesign ult i64 %indvars.iv.next50, %93
  br i1 %106, label %.lr.ph, label %._crit_edge, !llvm.loop !103

._crit_edge:                                      ; preds = %.lr.ph
  %107 = icmp samesign ult i64 %indvars.iv49, 14
  br i1 %107, label %108, label %addr_expand.exit.thread

108:                                              ; preds = %._crit_edge
  %109 = tail call i32 @BIO_puts(ptr noundef %0, ptr noundef nonnull @.str.44) #15
  br label %addr_expand.exit.thread

.critedge.thread:                                 ; preds = %82, %.critedge
  %110 = tail call i32 @BIO_puts(ptr noundef %0, ptr noundef nonnull @.str.44) #15
  %111 = tail call i32 @BIO_puts(ptr noundef %0, ptr noundef nonnull @.str.44) #15
  br label %addr_expand.exit.thread

112:                                              ; preds = %.lr.ph46, %112
  %indvars.iv52 = phi i64 [ 0, %.lr.ph46 ], [ %indvars.iv.next53, %112 ]
  %.not34 = icmp eq i64 %indvars.iv52, 0
  %113 = select i1 %.not34, ptr @.str.24, ptr @.str.44
  %114 = load ptr, ptr %9, align 8, !tbaa !10
  %115 = getelementptr inbounds nuw i8, ptr %114, i64 %indvars.iv52
  %116 = load i8, ptr %115, align 1, !tbaa !16
  %117 = zext i8 %116 to i32
  %118 = tail call i32 (ptr, ptr, ...) @BIO_printf(ptr noundef %0, ptr noundef nonnull @.str.45, ptr noundef nonnull %113, i32 noundef %117) #15
  %indvars.iv.next53 = add nuw nsw i64 %indvars.iv52, 1
  %119 = load i32, ptr %3, align 8, !tbaa !15
  %120 = sext i32 %119 to i64
  %121 = icmp slt i64 %indvars.iv.next53, %120
  br i1 %121, label %112, label %._crit_edge47, !llvm.loop !104

._crit_edge47:                                    ; preds = %112, %.preheader
  %122 = getelementptr inbounds nuw i8, ptr %3, i64 16
  %123 = load i64, ptr %122, align 8, !tbaa !34
  %124 = trunc i64 %123 to i32
  %125 = and i32 %124, 7
  %126 = tail call i32 (ptr, ptr, ...) @BIO_printf(ptr noundef %0, ptr noundef nonnull @.str.46, i32 noundef %125) #15
  br label %addr_expand.exit.thread

addr_expand.exit.thread:                          ; preds = %108, %._crit_edge, %52, %10, %._crit_edge55, %._crit_edge47, %.critedge.thread, %4
  %.032 = phi i32 [ 0, %4 ], [ 1, %108 ], [ 1, %.critedge.thread ], [ 1, %._crit_edge47 ], [ 1, %._crit_edge55 ], [ 0, %10 ], [ 0, %52 ], [ 1, %._crit_edge ]
  call void @llvm.lifetime.end.p0(i64 16, ptr nonnull %5) #15
  ret i32 %.032
}